; Function Attrs: mustprogress nofree norecurse nosync nounwind willreturn memory(readwrite, inaccessiblemem: none) uwtable
define void @Gia_ManSwapPos(ptr noundef readonly captures(none) %0, i32 noundef %1) local_unnamed_addr #21 {
  %3 = icmp eq i32 %1, 0
  br i1 %3, label %38, label %4

4:                                                ; preds = %2
  %5 = getelementptr i8, ptr %0, i64 32
  %.val11 = load ptr, ptr %5, align 8
  %6 = getelementptr i8, ptr %0, i64 72
  %.val12 = load ptr, ptr %6, align 8
  %7 = getelementptr i8, ptr %.val12, i64 8
  %.val12.val = load ptr, ptr %7, align 8
  %8 = load i32, ptr %.val12.val, align 4
  %9 = sext i32 %8 to i64
  %10 = getelementptr inbounds %struct.Gia_Obj_t_, ptr %.val11, i64 %9
  %.val3.i.i = load i64, ptr %10, align 4
  %11 = trunc i64 %.val3.i.i to i32
  %.neg20 = sub i32 %11, %8
  %12 = sext i32 %1 to i64
  %13 = getelementptr inbounds i32, ptr %.val12.val, i64 %12
  %14 = load i32, ptr %13, align 4
  %15 = sext i32 %14 to i64
  %16 = getelementptr inbounds %struct.Gia_Obj_t_, ptr %.val11, i64 %15
  %.val3.i.i19 = load i64, ptr %16, align 4
  %17 = trunc i64 %.val3.i.i19 to i32
  %.neg = sub i32 %8, %14
  %18 = add i32 %.neg, %17
  %19 = and i32 %18, 536870911
  %20 = zext nneg i32 %19 to i64
  %21 = and i64 %.val3.i.i, -1073741824
  %22 = and i64 %.val3.i.i19, 536870912
  %23 = or disjoint i64 %22, %21
  %24 = or disjoint i64 %23, %20
  store i64 %24, ptr %10, align 4
  %.val17 = load ptr, ptr %5, align 8
  %.val18 = load ptr, ptr %6, align 8
  %25 = getelementptr i8, ptr %.val18, i64 8
  %.val18.val = load ptr, ptr %25, align 8
  %26 = getelementptr inbounds i32, ptr %.val18.val, i64 %12
  %27 = load i32, ptr %26, align 4
  %28 = sext i32 %27 to i64
  %29 = getelementptr inbounds %struct.Gia_Obj_t_, ptr %.val17, i64 %28
  %30 = add i32 %.neg20, %27
  %31 = load i64, ptr %29, align 4
  %32 = and i32 %30, 536870911
  %33 = zext nneg i32 %32 to i64
  %34 = and i64 %31, -1073741824
  %35 = and i64 %.val3.i.i, 536870912
  %36 = or disjoint i64 %34, %35
  %37 = or disjoint i64 %36, %33
  store i64 %37, ptr %29, align 4
  br label %38

38:                                               ; preds = %2, %4
  ret void
}